target datalayout = "e-m:e-p270:32:32-p271:32:32-p272:64:64-i64:64-i128:128-f80:128-n8:16:32:64-S128"
target triple = "x86_64-pc-linux-gnu"

%struct._xmlNode = type { ptr, i32, ptr, ptr, ptr, ptr, ptr, ptr, ptr, ptr, ptr, ptr, ptr, ptr, i16, i16 }
%struct._php_libxml_node_ptr = type { ptr, i32, ptr }

; Function Attrs: nounwind uwtable
define ptr @php_dom_object_get_data(ptr noundef %0) #0 {
  %2 = alloca ptr, align 8
  %3 = alloca ptr, align 8
  store ptr %0, ptr %3, align 8
  %4 = load ptr, ptr %3, align 8
  %5 = icmp ne ptr %4, null
  br i1 %5, label %6, label %17

6:                                                ; preds = %1
  %7 = load ptr, ptr %3, align 8
  %8 = getelementptr inbounds %struct._xmlNode, ptr %7, i32 0, i32 0
  %9 = load ptr, ptr %8, align 8
  %10 = icmp ne ptr %9, null
  br i1 %10, label %11, label %17

11:                                               ; preds = %6
  %12 = load ptr, ptr %3, align 8
  %13 = getelementptr inbounds %struct._xmlNode, ptr %12, i32 0, i32 0
  %14 = load ptr, ptr %13, align 8
  %15 = getelementptr inbounds %struct._php_libxml_node_ptr, ptr %14, i32 0, i32 2
  %16 = load ptr, ptr %15, align 8
  store ptr %16, ptr %2, align 8
  br label %18

17:                                               ; preds = %6, %1
  store ptr null, ptr %2, align 8
  br label %18

18:                                               ; preds = %17, %11
  %19 = load ptr, ptr %2, align 8
  ret ptr %19
}

; Function Attrs: nounwind uwtable
define hidden void @node_list_unlink(ptr noundef %0) #0 {
  %2 = alloca ptr, align 8
  %3 = alloca ptr, align 8
  store ptr %0, ptr %2, align 8
  br label %4

4:                                                ; preds = %33, %1
  %5 = load ptr, ptr %2, align 8
  %6 = icmp ne ptr %5, null
  br i1 %6, label %7, label %37

7:                                                ; preds = %4
  %8 = load ptr, ptr %2, align 8
  %9 = call ptr @php_dom_object_get_data(ptr noundef %8)
  store ptr %9, ptr %3, align 8
  %10 = load ptr, ptr %3, align 8
  %11 = icmp ne ptr %10, null
  br i1 %11, label %12, label %14

12:                                               ; preds = %7
  %13 = load ptr, ptr %2, align 8
  call void @xmlUnlinkNode(ptr noundef %13)
  br label %33

14:                                               ; preds = %7
  %15 = load ptr, ptr %2, align 8
  %16 = getelementptr inbounds %struct._xmlNode, ptr %15, i32 0, i32 1
  %17 = load i32, ptr %16, align 8
  %18 = icmp eq i32 %17, 5
  br i1 %18, label %19, label %20

19:                                               ; preds = %14
  br label %37

20:                                               ; preds = %14
  %21 = load ptr, ptr %2, align 8
  %22 = getelementptr inbounds %struct._xmlNode, ptr %21, i32 0, i32 3
  %23 = load ptr, ptr %22, align 8
  call void @node_list_unlink(ptr noundef %23)
  %24 = load ptr, ptr %2, align 8
  %25 = getelementptr inbounds %struct._xmlNode, ptr %24, i32 0, i32 1
  %26 = load i32, ptr %25, align 8
  switch i32 %26, label %28 [
    i32 16, label %27
    i32 14, label %27
    i32 10, label %27
    i32 17, label %27
    i32 2, label %27
    i32 3, label %27
  ]

27:                                               ; preds = %20, %20, %20, %20, %20, %20
  br label %32

28:                                               ; preds = %20
  %29 = load ptr, ptr %2, align 8
  %30 = getelementptr inbounds %struct._xmlNode, ptr %29, i32 0, i32 11
  %31 = load ptr, ptr %30, align 8
  call void @node_list_unlink(ptr noundef %31)
  br label %32

32:                                               ; preds = %28, %27
  br label %33

33:                                               ; preds = %32, %12
  %34 = load ptr, ptr %2, align 8
  %35 = getelementptr inbounds %struct._xmlNode, ptr %34, i32 0, i32 6
  %36 = load ptr, ptr %35, align 8
  store ptr %36, ptr %2, align 8
  br label %4

37:                                               ; preds = %19, %4
  ret void
}