; Function Attrs: nounwind uwtable
define hidden void @node_list_unlink(ptr noundef %0) local_unnamed_addr #1 {
  %.not12 = icmp eq ptr %0, null
  br i1 %.not12, label %php_dom_object_get_data.exit.thread._crit_edge, label %.lr.ph

.lr.ph:                                           ; preds = %1, %16
  %.013 = phi ptr [ %18, %16 ], [ %0, %1 ]
  %2 = load ptr, ptr %.013, align 8
  %.not6.i = icmp eq ptr %2, null
  br i1 %.not6.i, label %php_dom_object_get_data.exit.thread, label %php_dom_object_get_data.exit

php_dom_object_get_data.exit:                     ; preds = %.lr.ph
  %3 = getelementptr inbounds i8, ptr %2, i64 16
  %4 = load ptr, ptr %3, align 8
  %.not9 = icmp eq ptr %4, null
  br i1 %.not9, label %php_dom_object_get_data.exit.thread, label %5

5:                                                ; preds = %php_dom_object_get_data.exit
  tail call void @xmlUnlinkNode(ptr noundef nonnull %.013) #16
  br label %16

php_dom_object_get_data.exit.thread:              ; preds = %.lr.ph, %php_dom_object_get_data.exit
  %6 = getelementptr inbounds i8, ptr %.013, i64 8
  %7 = load i32, ptr %6, align 8
  %8 = icmp eq i32 %7, 5
  br i1 %8, label %php_dom_object_get_data.exit.thread._crit_edge, label %9

9:                                                ; preds = %php_dom_object_get_data.exit.thread
  %10 = getelementptr inbounds i8, ptr %.013, i64 24
  %11 = load ptr, ptr %10, align 8
  tail call void @node_list_unlink(ptr noundef %11)
  %12 = load i32, ptr %6, align 8
  switch i32 %12, label %13 [
    i32 16, label %16
    i32 14, label %16
    i32 10, label %16
    i32 17, label %16
    i32 2, label %16
    i32 3, label %16
  ]

13:                                               ; preds = %9
  %14 = getelementptr inbounds i8, ptr %.013, i64 88
  %15 = load ptr, ptr %14, align 8
  tail call void @node_list_unlink(ptr noundef %15)
  br label %16

16:                                               ; preds = %13, %9, %9, %9, %9, %9, %9, %5
  %17 = getelementptr inbounds i8, ptr %.013, i64 48
  %18 = load ptr, ptr %17, align 8
  %.not = icmp eq ptr %18, null
  br i1 %.not, label %php_dom_object_get_data.exit.thread._crit_edge, label %.lr.ph

php_dom_object_get_data.exit.thread._crit_edge:   ; preds = %16, %php_dom_object_get_data.exit.thread, %1
  ret void
}